target datalayout = "e-m:e-p270:32:32-p271:32:32-p272:64:64-i64:64-i128:128-f80:128-n8:16:32:64-S128"
target triple = "x86_64-pc-linux-gnu"

; Function Attrs: nounwind uwtable
define internal void @smooth_predictor(ptr noundef %0, i64 noundef %1, i32 noundef %2, i32 noundef %3, ptr noundef %4, ptr noundef %5) #0 {
  %7 = alloca ptr, align 8
  %8 = alloca i64, align 8
  %9 = alloca i32, align 4
  %10 = alloca i32, align 4
  %11 = alloca ptr, align 8
  %12 = alloca ptr, align 8
  %13 = alloca i8, align 1
  %14 = alloca i8, align 1
  %15 = alloca ptr, align 8
  %16 = alloca ptr, align 8
  %17 = alloca i32, align 4
  %18 = alloca i16, align 2
  %19 = alloca i32, align 4
  %20 = alloca i32, align 4
  %21 = alloca [4 x i8], align 1
  %22 = alloca [4 x i8], align 1
  %23 = alloca i32, align 4
  %24 = alloca i32, align 4
  store ptr %0, ptr %7, align 8
  store i64 %1, ptr %8, align 8
  store i32 %2, ptr %9, align 4
  store i32 %3, ptr %10, align 4
  store ptr %4, ptr %11, align 8
  store ptr %5, ptr %12, align 8
  %25 = load ptr, ptr %12, align 8
  %26 = load i32, ptr %10, align 4
  %27 = sub nsw i32 %26, 1
  %28 = sext i32 %27 to i64
  %29 = getelementptr inbounds i8, ptr %25, i64 %28
  %30 = load i8, ptr %29, align 1
  store i8 %30, ptr %13, align 1
  %31 = load ptr, ptr %11, align 8
  %32 = load i32, ptr %9, align 4
  %33 = sub nsw i32 %32, 1
  %34 = sext i32 %33 to i64
  %35 = getelementptr inbounds i8, ptr %31, i64 %34
  %36 = load i8, ptr %35, align 1
  store i8 %36, ptr %14, align 1
  %37 = load i32, ptr %9, align 4
  %38 = sext i32 %37 to i64
  %39 = getelementptr inbounds i8, ptr @sm_weight_arrays, i64 %38
  store ptr %39, ptr %15, align 8
  %40 = load i32, ptr %10, align 4
  %41 = sext i32 %40 to i64
  %42 = getelementptr inbounds i8, ptr @sm_weight_arrays, i64 %41
  store ptr %42, ptr %16, align 8
  store i32 9, ptr %17, align 4
  store i16 256, ptr %18, align 2
  store i32 0, ptr %19, align 4
  br label %43

43:                                               ; preds = %133, %6
  %44 = load i32, ptr %19, align 4
  %45 = load i32, ptr %10, align 4
  %46 = icmp slt i32 %44, %45
  br i1 %46, label %47, label %136

47:                                               ; preds = %43
  store i32 0, ptr %20, align 4
  br label %48

48:                                               ; preds = %126, %47
  %49 = load i32, ptr %20, align 4
  %50 = load i32, ptr %9, align 4
  %51 = icmp slt i32 %49, %50
  br i1 %51, label %52, label %129

52:                                               ; preds = %48
  %53 = load ptr, ptr %11, align 8
  %54 = load i32, ptr %20, align 4
  %55 = sext i32 %54 to i64
  %56 = getelementptr inbounds i8, ptr %53, i64 %55
  %57 = load i8, ptr %56, align 1
  store i8 %57, ptr %21, align 1
  %58 = getelementptr inbounds i8, ptr %21, i64 1
  %59 = load i8, ptr %13, align 1
  store i8 %59, ptr %58, align 1
  %60 = getelementptr inbounds i8, ptr %21, i64 2
  %61 = load ptr, ptr %12, align 8
  %62 = load i32, ptr %19, align 4
  %63 = sext i32 %62 to i64
  %64 = getelementptr inbounds i8, ptr %61, i64 %63
  %65 = load i8, ptr %64, align 1
  store i8 %65, ptr %60, align 1
  %66 = getelementptr inbounds i8, ptr %21, i64 3
  %67 = load i8, ptr %14, align 1
  store i8 %67, ptr %66, align 1
  %68 = load ptr, ptr %16, align 8
  %69 = load i32, ptr %19, align 4
  %70 = sext i32 %69 to i64
  %71 = getelementptr inbounds i8, ptr %68, i64 %70
  %72 = load i8, ptr %71, align 1
  store i8 %72, ptr %22, align 1
  %73 = getelementptr inbounds i8, ptr %22, i64 1
  %74 = load ptr, ptr %16, align 8
  %75 = load i32, ptr %19, align 4
  %76 = sext i32 %75 to i64
  %77 = getelementptr inbounds i8, ptr %74, i64 %76
  %78 = load i8, ptr %77, align 1
  %79 = zext i8 %78 to i32
  %80 = sub nsw i32 256, %79
  %81 = trunc i32 %80 to i8
  store i8 %81, ptr %73, align 1
  %82 = getelementptr inbounds i8, ptr %22, i64 2
  %83 = load ptr, ptr %15, align 8
  %84 = load i32, ptr %20, align 4
  %85 = sext i32 %84 to i64
  %86 = getelementptr inbounds i8, ptr %83, i64 %85
  %87 = load i8, ptr %86, align 1
  store i8 %87, ptr %82, align 1
  %88 = getelementptr inbounds i8, ptr %22, i64 3
  %89 = load ptr, ptr %15, align 8
  %90 = load i32, ptr %20, align 4
  %91 = sext i32 %90 to i64
  %92 = getelementptr inbounds i8, ptr %89, i64 %91
  %93 = load i8, ptr %92, align 1
  %94 = zext i8 %93 to i32
  %95 = sub nsw i32 256, %94
  %96 = trunc i32 %95 to i8
  store i8 %96, ptr %88, align 1
  store i32 0, ptr %23, align 4
  store i32 0, ptr %24, align 4
  br label %97

97:                                               ; preds = %114, %52
  %98 = load i32, ptr %24, align 4
  %99 = icmp slt i32 %98, 4
  br i1 %99, label %100, label %117

100:                                              ; preds = %97
  %101 = load i32, ptr %24, align 4
  %102 = sext i32 %101 to i64
  %103 = getelementptr inbounds [4 x i8], ptr %22, i64 0, i64 %102
  %104 = load i8, ptr %103, align 1
  %105 = zext i8 %104 to i32
  %106 = load i32, ptr %24, align 4
  %107 = sext i32 %106 to i64
  %108 = getelementptr inbounds [4 x i8], ptr %21, i64 0, i64 %107
  %109 = load i8, ptr %108, align 1
  %110 = zext i8 %109 to i32
  %111 = mul nsw i32 %105, %110
  %112 = load i32, ptr %23, align 4
  %113 = add i32 %112, %111
  store i32 %113, ptr %23, align 4
  br label %114

114:                                              ; preds = %100
  %115 = load i32, ptr %24, align 4
  %116 = add nsw i32 %115, 1
  store i32 %116, ptr %24, align 4
  br label %97, !llvm.loop !15

117:                                              ; preds = %97
  %118 = load i32, ptr %23, align 4
  %119 = add i32 %118, 256
  %120 = lshr i32 %119, 9
  %121 = trunc i32 %120 to i8
  %122 = load ptr, ptr %7, align 8
  %123 = load i32, ptr %20, align 4
  %124 = sext i32 %123 to i64
  %125 = getelementptr inbounds i8, ptr %122, i64 %124
  store i8 %121, ptr %125, align 1
  br label %126

126:                                              ; preds = %117
  %127 = load i32, ptr %20, align 4
  %128 = add nsw i32 %127, 1
  store i32 %128, ptr %20, align 4
  br label %48, !llvm.loop !16

129:                                              ; preds = %48
  %130 = load i64, ptr %8, align 8
  %131 = load ptr, ptr %7, align 8
  %132 = getelementptr inbounds i8, ptr %131, i64 %130
  store ptr %132, ptr %7, align 8
  br label %133

133:                                              ; preds = %129
  %134 = load i32, ptr %19, align 4
  %135 = add nsw i32 %134, 1
  store i32 %135, ptr %19, align 4
  br label %43, !llvm.loop !17

136:                                              ; preds = %43
  ret void
}

; Function Attrs: nounwind uwtable
define hidden void @aom_smooth_predictor_16x16_c(ptr noundef %0, i64 noundef %1, ptr noundef %2, ptr noundef %3) #0 {
  %5 = alloca ptr, align 8
  %6 = alloca i64, align 8
  %7 = alloca ptr, align 8
  %8 = alloca ptr, align 8
  store ptr %0, ptr %5, align 8
  store i64 %1, ptr %6, align 8
  store ptr %2, ptr %7, align 8
  store ptr %3, ptr %8, align 8
  %9 = load ptr, ptr %5, align 8
  %10 = load i64, ptr %6, align 8
  %11 = load ptr, ptr %7, align 8
  %12 = load ptr, ptr %8, align 8
  call void @smooth_predictor(ptr noundef %9, i64 noundef %10, i32 noundef 16, i32 noundef 16, ptr noundef %11, ptr noundef %12)
  ret void
}